target datalayout = "e-m:e-p270:32:32-p271:32:32-p272:64:64-i64:64-i128:128-f80:128-n8:16:32:64-S128"
target triple = "x86_64-pc-linux-gnu"

%struct.b2World = type { %struct.b2ArenaAllocator, %struct.b2BroadPhase, %struct.b2ConstraintGraph, %struct.b2IdPool, %struct.b2BodyArray, %struct.b2IdPool, %struct.b2SolverSetArray, %struct.b2IdPool, %struct.b2JointArray, %struct.b2IdPool, %struct.b2ContactArray, %struct.b2IdPool, %struct.b2IslandArray, %struct.b2IdPool, %struct.b2IdPool, %struct.b2ShapeArray, %struct.b2ChainShapeArray, %struct.b2SensorArray, %struct.b2TaskContextArray, %struct.b2SensorTaskContextArray, %struct.b2BodyMoveEventArray, %struct.b2SensorBeginTouchEventArray, %struct.b2ContactBeginTouchEventArray, [2 x %struct.b2SensorEndTouchEventArray], [2 x %struct.b2ContactEndTouchEventArray], i32, %struct.b2ContactHitEventArray, %struct.b2BitSet, %struct.b2BitSet, %struct.b2BitSet, i64, i32, %struct.b2Vec2, float, float, float, float, float, float, float, float, ptr, ptr, i16, %struct.b2Profile, ptr, ptr, ptr, ptr, i32, ptr, ptr, ptr, ptr, ptr, float, i32, i32, i16, i8, i8, i8, i8, i8, i8 }
%struct.b2ArenaAllocator = type { ptr, i32, i32, i32, i32, %struct.b2ArenaEntryArray }
%struct.b2ArenaEntryArray = type { ptr, i32, i32 }
%struct.b2BroadPhase = type { [3 x %struct.b2DynamicTree], i32, %struct.b2HashSet, %struct.b2IntArray, ptr, ptr, i32, %struct.b2AtomicInt, %struct.b2HashSet }
%struct.b2DynamicTree = type { ptr, i32, i32, i32, i32, i32, ptr, ptr, ptr, ptr, i32 }
%struct.b2IntArray = type { ptr, i32, i32 }
%struct.b2AtomicInt = type { i32 }
%struct.b2HashSet = type { ptr, i32, i32 }
%struct.b2ConstraintGraph = type { [12 x %struct.b2GraphColor] }
%struct.b2GraphColor = type { %struct.b2BitSet, %struct.b2ContactSimArray, %struct.b2JointSimArray, %union.anon }
%struct.b2ContactSimArray = type { ptr, i32, i32 }
%struct.b2JointSimArray = type { ptr, i32, i32 }
%union.anon = type { ptr }
%struct.b2BodyArray = type { ptr, i32, i32 }
%struct.b2SolverSetArray = type { ptr, i32, i32 }
%struct.b2JointArray = type { ptr, i32, i32 }
%struct.b2ContactArray = type { ptr, i32, i32 }
%struct.b2IslandArray = type { ptr, i32, i32 }
%struct.b2IdPool = type { %struct.b2IntArray, i32 }
%struct.b2ShapeArray = type { ptr, i32, i32 }
%struct.b2ChainShapeArray = type { ptr, i32, i32 }
%struct.b2SensorArray = type { ptr, i32, i32 }
%struct.b2TaskContextArray = type { ptr, i32, i32 }
%struct.b2SensorTaskContextArray = type { ptr, i32, i32 }
%struct.b2BodyMoveEventArray = type { ptr, i32, i32 }
%struct.b2SensorBeginTouchEventArray = type { ptr, i32, i32 }
%struct.b2ContactBeginTouchEventArray = type { ptr, i32, i32 }
%struct.b2SensorEndTouchEventArray = type { ptr, i32, i32 }
%struct.b2ContactEndTouchEventArray = type { ptr, i32, i32 }
%struct.b2ContactHitEventArray = type { ptr, i32, i32 }
%struct.b2BitSet = type { ptr, i32, i32 }
%struct.b2Vec2 = type { float, float }
%struct.b2Profile = type { float, float, float, float, float, float, float, float, float, float, float, float, float, float, float, float, float, float, float, float, float, float }
%struct.b2WorldId = type { i16, i16 }
%struct.b2BodyEvents = type { ptr, i32 }

@b2_worlds = hidden global [128 x %struct.b2World] zeroinitializer, align 16

; Function Attrs: nounwind uwtable
define hidden ptr @b2GetWorldFromId(i32 %0) #0 {
  %2 = alloca %struct.b2WorldId, align 2
  %3 = alloca ptr, align 8
  store i32 %0, ptr %2, align 2
  call void @llvm.lifetime.start.p0(i64 8, ptr %3) #10
  %4 = getelementptr inbounds nuw %struct.b2WorldId, ptr %2, i32 0, i32 0
  %5 = load i16, ptr %4, align 2, !tbaa !44
  %6 = zext i16 %5 to i32
  %7 = sub nsw i32 %6, 1
  %8 = sext i32 %7 to i64
  %9 = getelementptr inbounds %struct.b2World, ptr @b2_worlds, i64 %8
  store ptr %9, ptr %3, align 8, !tbaa !47
  %10 = load ptr, ptr %3, align 8, !tbaa !47
  call void @llvm.lifetime.end.p0(i64 8, ptr %3) #10
  ret ptr %10
}

; Function Attrs: nounwind uwtable
define { ptr, i32 } @b2World_GetBodyEvents(i32 %0) #0 {
  %2 = alloca %struct.b2BodyEvents, align 8
  %3 = alloca %struct.b2WorldId, align 2
  %4 = alloca ptr, align 8
  %5 = alloca i32, align 4
  %6 = alloca i32, align 4
  store i32 %0, ptr %3, align 2
  call void @llvm.lifetime.start.p0(i64 8, ptr %4) #10
  %7 = load i32, ptr %3, align 2
  %8 = call ptr @b2GetWorldFromId(i32 %7)
  store ptr %8, ptr %4, align 8, !tbaa !47
  %9 = load ptr, ptr %4, align 8, !tbaa !47
  %10 = getelementptr inbounds nuw %struct.b2World, ptr %9, i32 0, i32 60
  %11 = load i8, ptr %10, align 1, !tbaa !49, !range !90, !noundef !91
  %12 = trunc i8 %11 to i1
  br i1 %12, label %13, label %17

13:                                               ; preds = %1
  %14 = getelementptr inbounds nuw %struct.b2BodyEvents, ptr %2, i32 0, i32 0
  store ptr null, ptr %14, align 8, !tbaa !418
  %15 = getelementptr inbounds nuw %struct.b2BodyEvents, ptr %2, i32 0, i32 1
  store i32 0, ptr %15, align 8, !tbaa !420
  %16 = getelementptr i8, ptr %2, i64 12
  call void @llvm.memset.p0.i64(ptr align 4 %16, i8 0, i64 4, i1 false)
  store i32 1, ptr %5, align 4
  br label %30

17:                                               ; preds = %1
  call void @llvm.lifetime.start.p0(i64 4, ptr %6) #10
  %18 = load ptr, ptr %4, align 8, !tbaa !47
  %19 = getelementptr inbounds nuw %struct.b2World, ptr %18, i32 0, i32 20
  %20 = getelementptr inbounds nuw %struct.b2BodyMoveEventArray, ptr %19, i32 0, i32 1
  %21 = load i32, ptr %20, align 8, !tbaa !421
  store i32 %21, ptr %6, align 4, !tbaa !3
  %22 = getelementptr inbounds nuw %struct.b2BodyEvents, ptr %2, i32 0, i32 0
  %23 = load ptr, ptr %4, align 8, !tbaa !47
  %24 = getelementptr inbounds nuw %struct.b2World, ptr %23, i32 0, i32 20
  %25 = getelementptr inbounds nuw %struct.b2BodyMoveEventArray, ptr %24, i32 0, i32 0
  %26 = load ptr, ptr %25, align 8, !tbaa !422
  store ptr %26, ptr %22, align 8, !tbaa !418
  %27 = getelementptr inbounds nuw %struct.b2BodyEvents, ptr %2, i32 0, i32 1
  %28 = load i32, ptr %6, align 4, !tbaa !3
  store i32 %28, ptr %27, align 8, !tbaa !420
  %29 = getelementptr i8, ptr %2, i64 12
  call void @llvm.memset.p0.i64(ptr align 4 %29, i8 0, i64 4, i1 false)
  store i32 1, ptr %5, align 4
  call void @llvm.lifetime.end.p0(i64 4, ptr %6) #10
  br label %30

30:                                               ; preds = %17, %13
  call void @llvm.lifetime.end.p0(i64 8, ptr %4) #10
  %31 = load { ptr, i32 }, ptr %2, align 8
  ret { ptr, i32 } %31
}