; Function Attrs: mustprogress nofree norecurse nosync nounwind willreturn memory(read, argmem: none, inaccessiblemem: none) uwtable
define { ptr, i32 } @b2World_GetBodyEvents(i32 %0) local_unnamed_addr #5 {
  %2 = and i32 %0, 65535
  %3 = zext nneg i32 %2 to i64
  %4 = getelementptr %struct.b2World, ptr @b2_worlds, i64 %3
  %5 = getelementptr i8, ptr %4, i64 -9
  %6 = load i8, ptr %5, align 1, !tbaa !35, !range !77, !noundef !78
  %7 = trunc nuw i8 %6 to i1
  br i1 %7, label %13, label %8

8:                                                ; preds = %1
  %9 = getelementptr i8, ptr %4, i64 -456
  %10 = getelementptr i8, ptr %4, i64 -448
  %11 = load i32, ptr %10, align 16, !tbaa !351
  %12 = load ptr, ptr %9, align 8, !tbaa !352
  br label %13

13:                                               ; preds = %1, %8
  %.sroa.03.0 = phi ptr [ %12, %8 ], [ null, %1 ]
  %.sroa.3.0 = phi i32 [ %11, %8 ], [ 0, %1 ]
  %.fca.0.insert = insertvalue { ptr, i32 } poison, ptr %.sroa.03.0, 0
  %.fca.1.insert = insertvalue { ptr, i32 } %.fca.0.insert, i32 %.sroa.3.0, 1
  ret { ptr, i32 } %.fca.1.insert
}